; Function Attrs: nounwind uwtable
define void @Gia_ManProfileCollect(ptr readnone captures(none) %0, i32 noundef %1, ptr noundef readonly captures(none) %2, ptr noundef readonly captures(none) %3, ptr noundef captures(none) initializes((4, 8)) %4) local_unnamed_addr #0 {
  %6 = getelementptr inbounds nuw i8, ptr %4, i64 4
  store i32 0, ptr %6, align 4
  %7 = getelementptr i8, ptr %3, i64 8
  %.val10 = load ptr, ptr %7, align 8
  %8 = sext i32 %1 to i64
  %9 = getelementptr i32, ptr %.val10, i64 %8
  %10 = load i32, ptr %9, align 4
  %11 = getelementptr i8, ptr %9, i64 4
  %12 = load i32, ptr %11, align 4
  %13 = icmp slt i32 %10, %12
  br i1 %13, label %.lr.ph, label %._crit_edge

.lr.ph:                                           ; preds = %5
  %14 = getelementptr i8, ptr %2, i64 8
  %.phi.trans.insert.i = getelementptr inbounds nuw i8, ptr %4, i64 8
  %15 = sext i32 %10 to i64
  br label %16

16:                                               ; preds = %.lr.ph, %Vec_IntPush.exit
  %indvars.iv = phi i64 [ %15, %.lr.ph ], [ %indvars.iv.next, %Vec_IntPush.exit ]
  %.val = load ptr, ptr %14, align 8
  %17 = getelementptr inbounds i32, ptr %.val, i64 %indvars.iv
  %18 = load i32, ptr %17, align 4
  %19 = load i32, ptr %6, align 4
  %20 = load i32, ptr %4, align 8
  %21 = icmp eq i32 %19, %20
  br i1 %21, label %22, label %.Vec_IntGrow.exit10_crit_edge.i

.Vec_IntGrow.exit10_crit_edge.i:                  ; preds = %16
  %.pre.i = load ptr, ptr %.phi.trans.insert.i, align 8
  br label %Vec_IntPush.exit

22:                                               ; preds = %16
  %23 = icmp slt i32 %19, 16
  br i1 %23, label %24, label %31

24:                                               ; preds = %22
  %25 = load ptr, ptr %.phi.trans.insert.i, align 8
  %.not9.i.i = icmp eq ptr %25, null
  br i1 %.not9.i.i, label %28, label %26

26:                                               ; preds = %24
  %27 = tail call dereferenceable_or_null(64) ptr @realloc(ptr noundef nonnull %25, i64 noundef 64) #30
  br label %Vec_IntGrow.exit.i

28:                                               ; preds = %24
  %29 = tail call noalias dereferenceable_or_null(64) ptr @malloc(i64 noundef 64) #28
  br label %Vec_IntGrow.exit.i

Vec_IntGrow.exit.i:                               ; preds = %28, %26
  %30 = phi ptr [ %27, %26 ], [ %29, %28 ]
  store ptr %30, ptr %.phi.trans.insert.i, align 8
  store i32 16, ptr %4, align 8
  br label %Vec_IntPush.exit

31:                                               ; preds = %22
  %32 = shl nuw nsw i32 %19, 1
  %33 = load ptr, ptr %.phi.trans.insert.i, align 8
  %.not9.i9.i = icmp eq ptr %33, null
  %34 = zext nneg i32 %32 to i64
  %35 = shl nuw nsw i64 %34, 2
  br i1 %.not9.i9.i, label %38, label %36

36:                                               ; preds = %31
  %37 = tail call ptr @realloc(ptr noundef nonnull %33, i64 noundef %35) #30
  br label %40

38:                                               ; preds = %31
  %39 = tail call noalias ptr @malloc(i64 noundef %35) #28
  br label %40

40:                                               ; preds = %38, %36
  %41 = phi ptr [ %37, %36 ], [ %39, %38 ]
  store ptr %41, ptr %.phi.trans.insert.i, align 8
  store i32 %32, ptr %4, align 8
  br label %Vec_IntPush.exit

Vec_IntPush.exit:                                 ; preds = %.Vec_IntGrow.exit10_crit_edge.i, %Vec_IntGrow.exit.i, %40
  %42 = phi ptr [ %.pre.i, %.Vec_IntGrow.exit10_crit_edge.i ], [ %41, %40 ], [ %30, %Vec_IntGrow.exit.i ]
  %43 = load i32, ptr %6, align 4
  %44 = add nsw i32 %43, 1
  store i32 %44, ptr %6, align 4
  %45 = sext i32 %43 to i64
  %46 = getelementptr inbounds i32, ptr %42, i64 %45
  store i32 %18, ptr %46, align 4
  %indvars.iv.next = add nsw i64 %indvars.iv, 1
  %.val9 = load ptr, ptr %7, align 8
  %47 = getelementptr i32, ptr %.val9, i64 %8
  %48 = getelementptr i8, ptr %47, i64 4
  %49 = load i32, ptr %48, align 4
  %50 = sext i32 %49 to i64
  %51 = icmp slt i64 %indvars.iv.next, %50
  br i1 %51, label %16, label %._crit_edge, !llvm.loop !34

._crit_edge:                                      ; preds = %Vec_IntPush.exit, %5
  ret void
}